; Function Attrs: null_pointer_is_valid sspstrong uwtable
define hidden noundef ptr @new_gopcfg(ptr noundef readonly captures(none) %0, ptr noundef %1) local_unnamed_addr #0 {
  %3 = tail call noalias dereferenceable_or_null(176) ptr @g_malloc(i64 noundef 176) #8
  %4 = tail call noalias ptr @g_strdup(ptr noundef %1)
  store ptr %4, ptr %3, align 8
  %5 = getelementptr inbounds nuw i8, ptr %3, i64 8
  store i32 0, ptr %5, align 8
  %6 = tail call ptr @g_hash_table_new(ptr noundef nonnull @g_direct_hash, ptr noundef nonnull @g_direct_equal)
  %7 = getelementptr inbounds nuw i8, ptr %3, i64 16
  store ptr %6, ptr %7, align 8
  %8 = getelementptr inbounds nuw i8, ptr %3, i64 24
  store ptr null, ptr %8, align 8
  %9 = tail call ptr @new_avpl(ptr noundef nonnull @.str)
  %10 = getelementptr inbounds nuw i8, ptr %3, i64 64
  store ptr %9, ptr %10, align 8
  %11 = getelementptr inbounds nuw i8, ptr %3, i64 120
  tail call void @llvm.memset.p0.i64(ptr noundef nonnull align 8 dereferenceable(40) %11, i8 -1, i64 40, i1 false)
  %12 = tail call ptr @g_hash_table_new(ptr noundef nonnull @g_str_hash, ptr noundef nonnull @g_str_equal)
  %13 = getelementptr inbounds nuw i8, ptr %3, i64 112
  store ptr %12, ptr %13, align 8
  %14 = tail call ptr @g_hash_table_new(ptr noundef nonnull @g_str_hash, ptr noundef nonnull @g_str_equal)
  %15 = getelementptr inbounds nuw i8, ptr %3, i64 160
  store ptr %14, ptr %15, align 8
  %16 = tail call ptr @g_hash_table_new(ptr noundef nonnull @g_str_hash, ptr noundef nonnull @g_str_equal)
  %17 = getelementptr inbounds nuw i8, ptr %3, i64 168
  store ptr %16, ptr %17, align 8
  %18 = getelementptr inbounds nuw i8, ptr %0, i64 56
  %19 = load ptr, ptr %18, align 8
  %20 = tail call i32 @g_hash_table_insert(ptr noundef %19, ptr noundef %4, ptr noundef %3)
  ret ptr %3
}